target datalayout = "e-m:e-p270:32:32-p271:32:32-p272:64:64-i64:64-i128:128-f80:128-n8:16:32:64-S128"
target triple = "x86_64-pc-linux-gnu"

%struct.mi_heap_s = type { ptr, ptr, i64, i32, i64, [2 x i64], %struct.mi_random_cxt_s, i64, i64, i64, ptr, i8, i8, [129 x ptr], [75 x %struct.mi_page_queue_s] }
%struct.mi_random_cxt_s = type { [16 x i32], [16 x i32], i32, i8 }
%struct.mi_page_queue_s = type { ptr, ptr, i64 }
%struct.mi_page_s = type { i8, i8, i16, i16, %union.mi_page_flags_s, i8, ptr, ptr, i16, i8, i8, i64, ptr, i64, i64, ptr, ptr }
%union.mi_page_flags_s = type { i8 }
%struct.mi_visit_blocks_args_s = type { i8, ptr, ptr }

; Function Attrs: nounwind uwtable
define internal zeroext i1 @mi_heap_visit_pages(ptr noundef %0, ptr noundef %1, ptr noundef %2, ptr noundef %3) #0 {
  %5 = alloca i1, align 1
  %6 = alloca ptr, align 8
  %7 = alloca ptr, align 8
  %8 = alloca ptr, align 8
  %9 = alloca ptr, align 8
  %10 = alloca i64, align 8
  %11 = alloca i32, align 4
  %12 = alloca ptr, align 8
  %13 = alloca ptr, align 8
  %14 = alloca ptr, align 8
  store ptr %0, ptr %6, align 8, !tbaa !3
  store ptr %1, ptr %7, align 8, !tbaa !42
  store ptr %2, ptr %8, align 8, !tbaa !42
  store ptr %3, ptr %9, align 8, !tbaa !42
  %15 = load ptr, ptr %6, align 8, !tbaa !3
  %16 = icmp eq ptr %15, null
  br i1 %16, label %22, label %17

17:                                               ; preds = %4
  %18 = load ptr, ptr %6, align 8, !tbaa !3
  %19 = getelementptr inbounds nuw %struct.mi_heap_s, ptr %18, i32 0, i32 7
  %20 = load i64, ptr %19, align 8, !tbaa !45
  %21 = icmp eq i64 %20, 0
  br i1 %21, label %22, label %23

22:                                               ; preds = %17, %4
  store i1 false, ptr %5, align 1
  br label %66

23:                                               ; preds = %17
  call void @llvm.lifetime.start.p0(i64 8, ptr %10) #10
  store i64 0, ptr %10, align 8, !tbaa !39
  br label %24

24:                                               ; preds = %60, %23
  %25 = load i64, ptr %10, align 8, !tbaa !39
  %26 = icmp ule i64 %25, 74
  br i1 %26, label %28, label %27

27:                                               ; preds = %24
  store i32 2, ptr %11, align 4
  br label %63

28:                                               ; preds = %24
  call void @llvm.lifetime.start.p0(i64 8, ptr %12) #10
  %29 = load ptr, ptr %6, align 8, !tbaa !3
  %30 = getelementptr inbounds nuw %struct.mi_heap_s, ptr %29, i32 0, i32 14
  %31 = load i64, ptr %10, align 8, !tbaa !39
  %32 = getelementptr inbounds nuw [75 x %struct.mi_page_queue_s], ptr %30, i64 0, i64 %31
  store ptr %32, ptr %12, align 8, !tbaa !46
  call void @llvm.lifetime.start.p0(i64 8, ptr %13) #10
  %33 = load ptr, ptr %12, align 8, !tbaa !46
  %34 = getelementptr inbounds nuw %struct.mi_page_queue_s, ptr %33, i32 0, i32 0
  %35 = load ptr, ptr %34, align 8, !tbaa !48
  store ptr %35, ptr %13, align 8, !tbaa !49
  br label %36

36:                                               ; preds = %55, %28
  %37 = load ptr, ptr %13, align 8, !tbaa !49
  %38 = icmp ne ptr %37, null
  br i1 %38, label %39, label %56

39:                                               ; preds = %36
  call void @llvm.lifetime.start.p0(i64 8, ptr %14) #10
  %40 = load ptr, ptr %13, align 8, !tbaa !49
  %41 = getelementptr inbounds nuw %struct.mi_page_s, ptr %40, i32 0, i32 15
  %42 = load ptr, ptr %41, align 8, !tbaa !50
  store ptr %42, ptr %14, align 8, !tbaa !49
  %43 = load ptr, ptr %7, align 8, !tbaa !42
  %44 = load ptr, ptr %6, align 8, !tbaa !3
  %45 = load ptr, ptr %12, align 8, !tbaa !46
  %46 = load ptr, ptr %13, align 8, !tbaa !49
  %47 = load ptr, ptr %8, align 8, !tbaa !42
  %48 = load ptr, ptr %9, align 8, !tbaa !42
  %49 = call zeroext i1 %43(ptr noundef %44, ptr noundef %45, ptr noundef %46, ptr noundef %47, ptr noundef %48) #9
  br i1 %49, label %51, label %50

50:                                               ; preds = %39
  store i1 false, ptr %5, align 1
  store i32 1, ptr %11, align 4
  br label %53

51:                                               ; preds = %39
  %52 = load ptr, ptr %14, align 8, !tbaa !49
  store ptr %52, ptr %13, align 8, !tbaa !49
  store i32 0, ptr %11, align 4
  br label %53

53:                                               ; preds = %51, %50
  call void @llvm.lifetime.end.p0(i64 8, ptr %14) #10
  %54 = load i32, ptr %11, align 4
  switch i32 %54, label %57 [
    i32 0, label %55
  ]

55:                                               ; preds = %53
  br label %36, !llvm.loop !55

56:                                               ; preds = %36
  store i32 0, ptr %11, align 4
  br label %57

57:                                               ; preds = %56, %53
  call void @llvm.lifetime.end.p0(i64 8, ptr %13) #10
  call void @llvm.lifetime.end.p0(i64 8, ptr %12) #10
  %58 = load i32, ptr %11, align 4
  switch i32 %58, label %63 [
    i32 0, label %59
  ]

59:                                               ; preds = %57
  br label %60

60:                                               ; preds = %59
  %61 = load i64, ptr %10, align 8, !tbaa !39
  %62 = add i64 %61, 1
  store i64 %62, ptr %10, align 8, !tbaa !39
  br label %24, !llvm.loop !56

63:                                               ; preds = %57, %27
  call void @llvm.lifetime.end.p0(i64 8, ptr %10) #10
  %64 = load i32, ptr %11, align 4
  switch i32 %64, label %68 [
    i32 2, label %65
    i32 1, label %66
  ]

65:                                               ; preds = %63
  store i1 true, ptr %5, align 1
  br label %66

66:                                               ; preds = %65, %63, %22
  %67 = load i1, ptr %5, align 1
  ret i1 %67

68:                                               ; preds = %63
  unreachable
}

; Function Attrs: nounwind uwtable
define internal zeroext i1 @mi_heap_visit_areas(ptr noundef %0, ptr noundef %1, ptr noundef %2) #0 {
  %4 = alloca i1, align 1
  %5 = alloca ptr, align 8
  %6 = alloca ptr, align 8
  %7 = alloca ptr, align 8
  store ptr %0, ptr %5, align 8, !tbaa !3
  store ptr %1, ptr %6, align 8, !tbaa !42
  store ptr %2, ptr %7, align 8, !tbaa !42
  %8 = load ptr, ptr %6, align 8, !tbaa !42
  %9 = icmp eq ptr %8, null
  br i1 %9, label %10, label %11

10:                                               ; preds = %3
  store i1 false, ptr %4, align 1
  br label %16

11:                                               ; preds = %3
  %12 = load ptr, ptr %5, align 8, !tbaa !3
  %13 = load ptr, ptr %6, align 8, !tbaa !42
  %14 = load ptr, ptr %7, align 8, !tbaa !42
  %15 = call zeroext i1 @mi_heap_visit_pages(ptr noundef %12, ptr noundef @mi_heap_visit_areas_page, ptr noundef %13, ptr noundef %14) #9
  store i1 %15, ptr %4, align 1
  br label %16

16:                                               ; preds = %11, %10
  %17 = load i1, ptr %4, align 1
  ret i1 %17
}

; Function Attrs: nounwind uwtable
define hidden zeroext i1 @mi_heap_visit_blocks(ptr noundef %0, i1 noundef zeroext %1, ptr noundef %2, ptr noundef %3) #0 {
  %5 = alloca ptr, align 8
  %6 = alloca i8, align 1
  %7 = alloca ptr, align 8
  %8 = alloca ptr, align 8
  %9 = alloca %struct.mi_visit_blocks_args_s, align 8
  store ptr %0, ptr %5, align 8, !tbaa !3
  %10 = zext i1 %1 to i8
  store i8 %10, ptr %6, align 1, !tbaa !10
  store ptr %2, ptr %7, align 8, !tbaa !42
  store ptr %3, ptr %8, align 8, !tbaa !42
  call void @llvm.lifetime.start.p0(i64 24, ptr %9) #10
  %11 = getelementptr inbounds nuw %struct.mi_visit_blocks_args_s, ptr %9, i32 0, i32 0
  %12 = load i8, ptr %6, align 1, !tbaa !10, !range !12, !noundef !13
  %13 = trunc i8 %12 to i1
  %14 = zext i1 %13 to i8
  store i8 %14, ptr %11, align 8, !tbaa !94
  %15 = getelementptr i8, ptr %9, i64 1
  call void @llvm.memset.p0.i64(ptr align 1 %15, i8 0, i64 7, i1 false)
  %16 = getelementptr inbounds nuw %struct.mi_visit_blocks_args_s, ptr %9, i32 0, i32 1
  %17 = load ptr, ptr %7, align 8, !tbaa !42
  store ptr %17, ptr %16, align 8, !tbaa !96
  %18 = getelementptr inbounds nuw %struct.mi_visit_blocks_args_s, ptr %9, i32 0, i32 2
  %19 = load ptr, ptr %8, align 8, !tbaa !42
  store ptr %19, ptr %18, align 8, !tbaa !97
  %20 = load ptr, ptr %5, align 8, !tbaa !3
  %21 = call zeroext i1 @mi_heap_visit_areas(ptr noundef %20, ptr noundef @mi_heap_area_visitor, ptr noundef %9) #9
  call void @llvm.lifetime.end.p0(i64 24, ptr %9) #10
  ret i1 %21
}