; Function Attrs: nounwind uwtable
define hidden noundef zeroext i1 @mi_heap_visit_blocks(ptr noundef %0, i1 noundef zeroext %1, ptr noundef readonly captures(none) %2, ptr noundef %3) local_unnamed_addr #0 {
  %5 = alloca %struct.mi_heap_area_ex_s, align 8
  %6 = icmp eq ptr %0, null
  br i1 %6, label %mi_heap_visit_areas.exit, label %7

7:                                                ; preds = %4
  %8 = getelementptr inbounds nuw i8, ptr %0, i64 192
  %9 = load i64, ptr %8, align 8, !tbaa !31
  %10 = icmp eq i64 %9, 0
  br i1 %10, label %mi_heap_visit_areas.exit, label %.preheader.i.i

.preheader.i.i:                                   ; preds = %7
  %11 = getelementptr inbounds nuw i8, ptr %0, i64 1264
  %12 = getelementptr inbounds nuw i8, ptr %5, i64 56
  %13 = getelementptr inbounds nuw i8, ptr %5, i64 8
  %14 = getelementptr inbounds nuw i8, ptr %5, i64 16
  %15 = getelementptr inbounds nuw i8, ptr %5, i64 24
  %16 = getelementptr inbounds nuw i8, ptr %5, i64 32
  %17 = getelementptr inbounds nuw i8, ptr %5, i64 40
  %18 = getelementptr inbounds nuw i8, ptr %5, i64 48
  br i1 %1, label %.preheader.i.i.split.us, label %.preheader.i.i.split

.preheader.i.i.split.us:                          ; preds = %.preheader.i.i, %.critedge.i.i.us
  %.02229.i.i.us = phi i64 [ %21, %.critedge.i.i.us ], [ 0, %.preheader.i.i ]
  %19 = getelementptr inbounds nuw [75 x %struct.mi_page_queue_s], ptr %11, i64 0, i64 %.02229.i.i.us
  %20 = load ptr, ptr %19, align 8, !tbaa !32
  %.not.i3.i.us = icmp eq ptr %20, null
  br i1 %.not.i3.i.us, label %.critedge.i.i.us, label %.lr.ph.i.us.us

.critedge.i.i.us:                                 ; preds = %.backedge.i.us.us, %.preheader.i.i.split.us
  %21 = add nuw nsw i64 %.02229.i.i.us, 1
  %exitcond.i.i.us = icmp eq i64 %21, 75
  br i1 %exitcond.i.i.us, label %mi_heap_visit_areas.exit, label %.preheader.i.i.split.us, !llvm.loop !40

.lr.ph.i.us.us:                                   ; preds = %.preheader.i.i.split.us, %.backedge.i.us.us
  %.020.i4.i.us.us = phi ptr [ %23, %.backedge.i.us.us ], [ %20, %.preheader.i.i.split.us ]
  %22 = getelementptr inbounds nuw i8, ptr %.020.i4.i.us.us, i64 64
  %23 = load ptr, ptr %22, align 8, !tbaa !33
  call void @llvm.lifetime.start.p0(i64 64, ptr nonnull %5) #12
  store ptr %.020.i4.i.us.us, ptr %12, align 8, !tbaa !81
  %24 = getelementptr i8, ptr %.020.i4.i.us.us, i64 32
  %.val.i.i.i.us.us = load i64, ptr %24, align 8, !tbaa !62
  %25 = getelementptr inbounds nuw i8, ptr %.020.i4.i.us.us, i64 4
  %26 = load i16, ptr %25, align 4, !tbaa !63
  %27 = zext i16 %26 to i64
  %28 = mul i64 %.val.i.i.i.us.us, %27
  store i64 %28, ptr %13, align 8, !tbaa !64
  %29 = getelementptr inbounds nuw i8, ptr %.020.i4.i.us.us, i64 2
  %30 = load i16, ptr %29, align 2, !tbaa !61
  %31 = zext i16 %30 to i64
  %32 = mul i64 %.val.i.i.i.us.us, %31
  store i64 %32, ptr %14, align 8, !tbaa !66
  %33 = getelementptr i8, ptr %.020.i4.i.us.us, i64 40
  %.val17.i.i.i.us.us = load ptr, ptr %33, align 8, !tbaa !60
  store ptr %.val17.i.i.i.us.us, ptr %5, align 8, !tbaa !67
  %34 = getelementptr inbounds nuw i8, ptr %.020.i4.i.us.us, i64 24
  %35 = load i16, ptr %34, align 8, !tbaa !41
  %36 = zext i16 %35 to i64
  store i64 %36, ptr %15, align 8, !tbaa !68
  store i64 %.val.i.i.i.us.us, ptr %16, align 8, !tbaa !69
  store i64 %.val.i.i.i.us.us, ptr %17, align 8, !tbaa !70
  %37 = getelementptr inbounds nuw i8, ptr %.020.i4.i.us.us, i64 27
  %38 = load i8, ptr %37, align 1, !tbaa !71
  %39 = zext i8 %38 to i32
  store i32 %39, ptr %18, align 8, !tbaa !72
  %40 = call zeroext i1 %2(ptr noundef nonnull %0, ptr noundef nonnull %5, ptr noundef null, i64 noundef %.val.i.i.i.us.us, ptr noundef %3) #11
  br i1 %40, label %41, label %mi_heap_area_visitor.exit.thread.i

41:                                               ; preds = %.lr.ph.i.us.us
  %42 = load ptr, ptr %12, align 8, !tbaa !81
  %43 = call zeroext i1 @_mi_heap_area_visit_blocks(ptr noundef nonnull %5, ptr noundef %42, ptr noundef %2, ptr noundef %3) #10
  call void @llvm.lifetime.end.p0(i64 64, ptr nonnull %5) #12
  br i1 %43, label %.backedge.i.us.us, label %mi_heap_visit_areas.exit

.backedge.i.us.us:                                ; preds = %41
  %.not.i.i.us.us = icmp eq ptr %23, null
  br i1 %.not.i.i.us.us, label %.critedge.i.i.us, label %.lr.ph.i.us.us, !llvm.loop !38

.preheader.i.i.split:                             ; preds = %.preheader.i.i, %.critedge.i.i
  %.02229.i.i = phi i64 [ %65, %.critedge.i.i ], [ 0, %.preheader.i.i ]
  %44 = getelementptr inbounds nuw [75 x %struct.mi_page_queue_s], ptr %11, i64 0, i64 %.02229.i.i
  %45 = load ptr, ptr %44, align 8, !tbaa !32
  %.not.i3.i = icmp eq ptr %45, null
  br i1 %.not.i3.i, label %.critedge.i.i, label %.lr.ph.i

.lr.ph.i:                                         ; preds = %.preheader.i.i.split, %mi_heap_area_visitor.exit.i
  %.020.i4.i = phi ptr [ %47, %mi_heap_area_visitor.exit.i ], [ %45, %.preheader.i.i.split ]
  %46 = getelementptr inbounds nuw i8, ptr %.020.i4.i, i64 64
  %47 = load ptr, ptr %46, align 8, !tbaa !33
  call void @llvm.lifetime.start.p0(i64 64, ptr nonnull %5) #12
  store ptr %.020.i4.i, ptr %12, align 8, !tbaa !81
  %48 = getelementptr i8, ptr %.020.i4.i, i64 32
  %.val.i.i.i = load i64, ptr %48, align 8, !tbaa !62
  %49 = getelementptr inbounds nuw i8, ptr %.020.i4.i, i64 4
  %50 = load i16, ptr %49, align 4, !tbaa !63
  %51 = zext i16 %50 to i64
  %52 = mul i64 %.val.i.i.i, %51
  store i64 %52, ptr %13, align 8, !tbaa !64
  %53 = getelementptr inbounds nuw i8, ptr %.020.i4.i, i64 2
  %54 = load i16, ptr %53, align 2, !tbaa !61
  %55 = zext i16 %54 to i64
  %56 = mul i64 %.val.i.i.i, %55
  store i64 %56, ptr %14, align 8, !tbaa !66
  %57 = getelementptr i8, ptr %.020.i4.i, i64 40
  %.val17.i.i.i = load ptr, ptr %57, align 8, !tbaa !60
  store ptr %.val17.i.i.i, ptr %5, align 8, !tbaa !67
  %58 = getelementptr inbounds nuw i8, ptr %.020.i4.i, i64 24
  %59 = load i16, ptr %58, align 8, !tbaa !41
  %60 = zext i16 %59 to i64
  store i64 %60, ptr %15, align 8, !tbaa !68
  store i64 %.val.i.i.i, ptr %16, align 8, !tbaa !69
  store i64 %.val.i.i.i, ptr %17, align 8, !tbaa !70
  %61 = getelementptr inbounds nuw i8, ptr %.020.i4.i, i64 27
  %62 = load i8, ptr %61, align 1, !tbaa !71
  %63 = zext i8 %62 to i32
  store i32 %63, ptr %18, align 8, !tbaa !72
  %64 = call zeroext i1 %2(ptr noundef nonnull %0, ptr noundef nonnull %5, ptr noundef null, i64 noundef %.val.i.i.i, ptr noundef %3) #11
  br i1 %64, label %mi_heap_area_visitor.exit.i, label %mi_heap_area_visitor.exit.thread.i

mi_heap_area_visitor.exit.thread.i:               ; preds = %.lr.ph.i, %.lr.ph.i.us.us
  call void @llvm.lifetime.end.p0(i64 64, ptr nonnull %5) #12
  br label %mi_heap_visit_areas.exit

mi_heap_area_visitor.exit.i:                      ; preds = %.lr.ph.i
  call void @llvm.lifetime.end.p0(i64 64, ptr nonnull %5) #12
  %.not.i.i = icmp eq ptr %47, null
  br i1 %.not.i.i, label %.critedge.i.i, label %.lr.ph.i, !llvm.loop !38

.critedge.i.i:                                    ; preds = %mi_heap_area_visitor.exit.i, %.preheader.i.i.split
  %65 = add nuw nsw i64 %.02229.i.i, 1
  %exitcond.i.i = icmp eq i64 %65, 75
  br i1 %exitcond.i.i, label %mi_heap_visit_areas.exit, label %.preheader.i.i.split, !llvm.loop !40

mi_heap_visit_areas.exit:                         ; preds = %.critedge.i.i, %.critedge.i.i.us, %41, %4, %7, %mi_heap_area_visitor.exit.thread.i
  %.0.i.i = phi i1 [ false, %7 ], [ false, %4 ], [ false, %mi_heap_area_visitor.exit.thread.i ], [ false, %41 ], [ true, %.critedge.i.i.us ], [ true, %.critedge.i.i ]
  ret i1 %.0.i.i
}